target datalayout = "e-m:e-p270:32:32-p271:32:32-p272:64:64-i64:64-i128:128-f80:128-n8:16:32:64-S128"
target triple = "x86_64-pc-linux-gnu"

%"class.cv::tracking::impl::tld::TLDDetector" = type { %"class.std::vector", ptr, ptr, ptr, ptr, ptr, ptr, ptr, ptr, ptr, %"class.std::vector.0", %"class.std::vector.0", %"class.std::vector.5", %"class.std::vector.10", %"class.std::vector.10", %"class.std::vector.15", %"class.std::vector.15", %"class.std::vector.20", %"class.std::vector.20" }
%"class.std::vector" = type { %"struct.std::_Vector_base" }
%"struct.std::_Vector_base" = type { %"struct.std::_Vector_base<cv::tracking::impl::tld::TLDEnsembleClassifier, std::allocator<cv::tracking::impl::tld::TLDEnsembleClassifier>>::_Vector_impl" }
%"struct.std::_Vector_base<cv::tracking::impl::tld::TLDEnsembleClassifier, std::allocator<cv::tracking::impl::tld::TLDEnsembleClassifier>>::_Vector_impl" = type { %"struct.std::_Vector_base<cv::tracking::impl::tld::TLDEnsembleClassifier, std::allocator<cv::tracking::impl::tld::TLDEnsembleClassifier>>::_Vector_impl_data" }
%"struct.std::_Vector_base<cv::tracking::impl::tld::TLDEnsembleClassifier, std::allocator<cv::tracking::impl::tld::TLDEnsembleClassifier>>::_Vector_impl_data" = type { ptr, ptr, ptr }
%"class.std::vector.0" = type { %"struct.std::_Vector_base.1" }
%"struct.std::_Vector_base.1" = type { %"struct.std::_Vector_base<double, std::allocator<double>>::_Vector_impl" }
%"struct.std::_Vector_base<double, std::allocator<double>>::_Vector_impl" = type { %"struct.std::_Vector_base<double, std::allocator<double>>::_Vector_impl_data" }
%"struct.std::_Vector_base<double, std::allocator<double>>::_Vector_impl_data" = type { ptr, ptr, ptr }
%"class.std::vector.5" = type { %"struct.std::_Vector_base.6" }
%"struct.std::_Vector_base.6" = type { %"struct.std::_Vector_base<cv::Mat_<unsigned char>, std::allocator<cv::Mat_<unsigned char>>>::_Vector_impl" }
%"struct.std::_Vector_base<cv::Mat_<unsigned char>, std::allocator<cv::Mat_<unsigned char>>>::_Vector_impl" = type { %"struct.std::_Vector_base<cv::Mat_<unsigned char>, std::allocator<cv::Mat_<unsigned char>>>::_Vector_impl_data" }
%"struct.std::_Vector_base<cv::Mat_<unsigned char>, std::allocator<cv::Mat_<unsigned char>>>::_Vector_impl_data" = type { ptr, ptr, ptr }
%"class.std::vector.10" = type { %"struct.std::_Vector_base.11" }
%"struct.std::_Vector_base.11" = type { %"struct.std::_Vector_base<cv::Mat, std::allocator<cv::Mat>>::_Vector_impl" }
%"struct.std::_Vector_base<cv::Mat, std::allocator<cv::Mat>>::_Vector_impl" = type { %"struct.std::_Vector_base<cv::Mat, std::allocator<cv::Mat>>::_Vector_impl_data" }
%"struct.std::_Vector_base<cv::Mat, std::allocator<cv::Mat>>::_Vector_impl_data" = type { ptr, ptr, ptr }
%"class.std::vector.15" = type { %"struct.std::_Vector_base.16" }
%"struct.std::_Vector_base.16" = type { %"struct.std::_Vector_base<cv::Point_<int>, std::allocator<cv::Point_<int>>>::_Vector_impl" }
%"struct.std::_Vector_base<cv::Point_<int>, std::allocator<cv::Point_<int>>>::_Vector_impl" = type { %"struct.std::_Vector_base<cv::Point_<int>, std::allocator<cv::Point_<int>>>::_Vector_impl_data" }
%"struct.std::_Vector_base<cv::Point_<int>, std::allocator<cv::Point_<int>>>::_Vector_impl_data" = type { ptr, ptr, ptr }
%"class.std::vector.20" = type { %"struct.std::_Vector_base.21" }
%"struct.std::_Vector_base.21" = type { %"struct.std::_Vector_base<int, std::allocator<int>>::_Vector_impl" }
%"struct.std::_Vector_base<int, std::allocator<int>>::_Vector_impl" = type { %"struct.std::_Vector_base<int, std::allocator<int>>::_Vector_impl_data" }
%"struct.std::_Vector_base<int, std::allocator<int>>::_Vector_impl_data" = type { ptr, ptr, ptr }
%"class.cv::tracking::impl::tld::TLDEnsembleClassifier" = type <{ %"class.std::vector.15", %"class.std::vector.25", %"class.std::vector.15", i32, [4 x i8] }>
%"class.std::vector.25" = type { %"struct.std::_Vector_base.26" }
%"struct.std::_Vector_base.26" = type { %"struct.std::_Vector_base<cv::Vec<unsigned char, 4>, std::allocator<cv::Vec<unsigned char, 4>>>::_Vector_impl" }
%"struct.std::_Vector_base<cv::Vec<unsigned char, 4>, std::allocator<cv::Vec<unsigned char, 4>>>::_Vector_impl" = type { %"struct.std::_Vector_base<cv::Vec<unsigned char, 4>, std::allocator<cv::Vec<unsigned char, 4>>>::_Vector_impl_data" }
%"struct.std::_Vector_base<cv::Vec<unsigned char, 4>, std::allocator<cv::Vec<unsigned char, 4>>>::_Vector_impl_data" = type { ptr, ptr, ptr }

; Function Attrs: mustprogress nounwind uwtable
define linkonce_odr hidden noundef nonnull align 8 dereferenceable(76) ptr @_ZNSt6vectorIN2cv8tracking4impl3tld21TLDEnsembleClassifierESaIS4_EEixEm(ptr noundef nonnull align 8 dereferenceable(24) %0, i64 noundef %1) #7 comdat align 2 {
  %3 = alloca ptr, align 8
  %4 = alloca i64, align 8
  store ptr %0, ptr %3, align 8, !tbaa !17
  store i64 %1, ptr %4, align 8, !tbaa !23
  %5 = load ptr, ptr %3, align 8
  %6 = getelementptr inbounds nuw %"struct.std::_Vector_base", ptr %5, i32 0, i32 0
  %7 = getelementptr inbounds nuw %"struct.std::_Vector_base<cv::tracking::impl::tld::TLDEnsembleClassifier, std::allocator<cv::tracking::impl::tld::TLDEnsembleClassifier>>::_Vector_impl_data", ptr %6, i32 0, i32 0
  %8 = load ptr, ptr %7, align 8, !tbaa !22
  %9 = load i64, ptr %4, align 8, !tbaa !23
  %10 = getelementptr inbounds nuw %"class.cv::tracking::impl::tld::TLDEnsembleClassifier", ptr %8, i64 %9
  ret ptr %10
}

; Function Attrs: mustprogress nounwind uwtable
define linkonce_odr hidden noundef i64 @_ZNKSt6vectorIN2cv8tracking4impl3tld21TLDEnsembleClassifierESaIS4_EE4sizeEv(ptr noundef nonnull align 8 dereferenceable(24) %0) #7 comdat align 2 {
  %2 = alloca ptr, align 8
  store ptr %0, ptr %2, align 8, !tbaa !17
  %3 = load ptr, ptr %2, align 8
  %4 = getelementptr inbounds nuw %"struct.std::_Vector_base", ptr %3, i32 0, i32 0
  %5 = getelementptr inbounds nuw %"struct.std::_Vector_base<cv::tracking::impl::tld::TLDEnsembleClassifier, std::allocator<cv::tracking::impl::tld::TLDEnsembleClassifier>>::_Vector_impl_data", ptr %4, i32 0, i32 1
  %6 = load ptr, ptr %5, align 8, !tbaa !19
  %7 = getelementptr inbounds nuw %"struct.std::_Vector_base", ptr %3, i32 0, i32 0
  %8 = getelementptr inbounds nuw %"struct.std::_Vector_base<cv::tracking::impl::tld::TLDEnsembleClassifier, std::allocator<cv::tracking::impl::tld::TLDEnsembleClassifier>>::_Vector_impl_data", ptr %7, i32 0, i32 0
  %9 = load ptr, ptr %8, align 8, !tbaa !22
  %10 = ptrtoint ptr %6 to i64
  %11 = ptrtoint ptr %9 to i64
  %12 = sub i64 %10, %11
  %13 = sdiv exact i64 %12, 80
  ret i64 %13
}

; Function Attrs: mustprogress uwtable
define hidden noundef double @_ZN2cv8tracking4impl3tld11TLDDetector21ensembleClassifierNumEPKh(ptr noundef nonnull align 8 dereferenceable(312) %0, ptr noundef %1) #6 align 2 {
  %3 = alloca ptr, align 8
  %4 = alloca ptr, align 8
  %5 = alloca double, align 8
  %6 = alloca i32, align 4
  store ptr %0, ptr %3, align 8, !tbaa !13
  store ptr %1, ptr %4, align 8, !tbaa !25
  %7 = load ptr, ptr %3, align 8
  call void @llvm.lifetime.start.p0(i64 8, ptr %5) #3
  store double 0.000000e+00, ptr %5, align 8, !tbaa !27
  call void @llvm.lifetime.start.p0(i64 4, ptr %6) #3
  store i32 0, ptr %6, align 4, !tbaa !8
  br label %8

8:                                                ; preds = %24, %2
  %9 = load i32, ptr %6, align 4, !tbaa !8
  %10 = getelementptr inbounds nuw %"class.cv::tracking::impl::tld::TLDDetector", ptr %7, i32 0, i32 0
  %11 = call noundef i64 @_ZNKSt6vectorIN2cv8tracking4impl3tld21TLDEnsembleClassifierESaIS4_EE4sizeEv(ptr noundef nonnull align 8 dereferenceable(24) %10) #3
  %12 = trunc i64 %11 to i32
  %13 = icmp slt i32 %9, %12
  br i1 %13, label %15, label %14

14:                                               ; preds = %8
  call void @llvm.lifetime.end.p0(i64 4, ptr %6) #3
  br label %27

15:                                               ; preds = %8
  %16 = getelementptr inbounds nuw %"class.cv::tracking::impl::tld::TLDDetector", ptr %7, i32 0, i32 0
  %17 = load i32, ptr %6, align 4, !tbaa !8
  %18 = sext i32 %17 to i64
  %19 = call noundef nonnull align 8 dereferenceable(76) ptr @_ZNSt6vectorIN2cv8tracking4impl3tld21TLDEnsembleClassifierESaIS4_EEixEm(ptr noundef nonnull align 8 dereferenceable(24) %16, i64 noundef %18) #3
  %20 = load ptr, ptr %4, align 8, !tbaa !25
  %21 = call noundef double @_ZNK2cv8tracking4impl3tld21TLDEnsembleClassifier24posteriorProbabilityFastEPKh(ptr noundef nonnull align 8 dereferenceable(76) %19, ptr noundef %20)
  %22 = load double, ptr %5, align 8, !tbaa !27
  %23 = fadd double %22, %21
  store double %23, ptr %5, align 8, !tbaa !27
  br label %24

24:                                               ; preds = %15
  %25 = load i32, ptr %6, align 4, !tbaa !8
  %26 = add nsw i32 %25, 1
  store i32 %26, ptr %6, align 4, !tbaa !8
  br label %8, !llvm.loop !29

27:                                               ; preds = %14
  %28 = getelementptr inbounds nuw %"class.cv::tracking::impl::tld::TLDDetector", ptr %7, i32 0, i32 0
  %29 = call noundef i64 @_ZNKSt6vectorIN2cv8tracking4impl3tld21TLDEnsembleClassifierESaIS4_EE4sizeEv(ptr noundef nonnull align 8 dereferenceable(24) %28) #3
  %30 = uitofp i64 %29 to double
  %31 = load double, ptr %5, align 8, !tbaa !27
  %32 = fdiv double %31, %30
  store double %32, ptr %5, align 8, !tbaa !27
  %33 = load double, ptr %5, align 8, !tbaa !27
  call void @llvm.lifetime.end.p0(i64 8, ptr %5) #3
  ret double %33
}