; Function Attrs: mustprogress uwtable
define hidden noundef double @_ZN2cv8tracking4impl3tld11TLDDetector21ensembleClassifierNumEPKh(ptr noundef nonnull readonly align 8 captures(none) dereferenceable(312) %0, ptr noundef %1) local_unnamed_addr #4 align 2 {
  %3 = getelementptr inbounds nuw i8, ptr %0, i64 8
  %4 = load ptr, ptr %3, align 8, !tbaa !3
  %5 = load ptr, ptr %0, align 8, !tbaa !9
  %6 = ptrtoint ptr %4 to i64
  %7 = ptrtoint ptr %5 to i64
  %8 = sub i64 %6, %7
  %9 = sdiv exact i64 %8, 80
  %10 = trunc i64 %9 to i32
  %11 = icmp sgt i32 %10, 0
  br i1 %11, label %.lr.ph, label %._crit_edge

._crit_edge:                                      ; preds = %.lr.ph, %2
  %.07.lcssa = phi double [ 0.000000e+00, %2 ], [ %17, %.lr.ph ]
  %.lcssa = phi i64 [ %9, %2 ], [ %23, %.lr.ph ]
  %12 = uitofp i64 %.lcssa to double
  %13 = fdiv double %.07.lcssa, %12
  ret double %13

.lr.ph:                                           ; preds = %2, %.lr.ph
  %indvars.iv = phi i64 [ %indvars.iv.next, %.lr.ph ], [ 0, %2 ]
  %14 = phi ptr [ %19, %.lr.ph ], [ %5, %2 ]
  %.078 = phi double [ %17, %.lr.ph ], [ 0.000000e+00, %2 ]
  %15 = getelementptr inbounds nuw %"class.cv::tracking::impl::tld::TLDEnsembleClassifier", ptr %14, i64 %indvars.iv
  %16 = tail call noundef double @_ZNK2cv8tracking4impl3tld21TLDEnsembleClassifier24posteriorProbabilityFastEPKh(ptr noundef nonnull align 8 dereferenceable(76) %15, ptr noundef %1)
  %17 = fadd double %.078, %16
  %indvars.iv.next = add nuw nsw i64 %indvars.iv, 1
  %18 = load ptr, ptr %3, align 8, !tbaa !3
  %19 = load ptr, ptr %0, align 8, !tbaa !9
  %20 = ptrtoint ptr %18 to i64
  %21 = ptrtoint ptr %19 to i64
  %22 = sub i64 %20, %21
  %23 = sdiv exact i64 %22, 80
  %sext = shl i64 %23, 32
  %24 = ashr exact i64 %sext, 32
  %25 = icmp slt i64 %indvars.iv.next, %24
  br i1 %25, label %.lr.ph, label %._crit_edge, !llvm.loop !12
}